; Function Attrs: nounwind uwtable
define range(i32 0, 2) i32 @tls_construct_next_proto(ptr noundef %0, ptr noundef %1) #0 {
  %3 = alloca ptr, align 8
  call void @llvm.lifetime.start.p0(i64 8, ptr nonnull %3) #8
  store ptr null, ptr %3, align 8, !tbaa !168
  %4 = getelementptr inbounds nuw i8, ptr %0, i64 2824
  %5 = load i64, ptr %4, align 8, !tbaa !173
  %6 = add i64 %5, 2
  %7 = and i64 %6, 31
  %8 = sub nuw nsw i64 32, %7
  %9 = getelementptr inbounds nuw i8, ptr %0, i64 2816
  %10 = load ptr, ptr %9, align 8, !tbaa !174
  %11 = tail call i32 @WPACKET_sub_memcpy__(ptr noundef %1, ptr noundef %10, i64 noundef %5, i64 noundef 1) #8
  %.not = icmp eq i32 %11, 0
  br i1 %.not, label %14, label %12

12:                                               ; preds = %2
  %13 = call i32 @WPACKET_sub_allocate_bytes__(ptr noundef %1, i64 noundef %8, ptr noundef nonnull %3, i64 noundef 1) #8
  %.not9 = icmp eq i32 %13, 0
  br i1 %.not9, label %14, label %15

14:                                               ; preds = %12, %2
  call void @ERR_new() #8
  call void @ERR_set_debug(ptr noundef nonnull @.str, i32 noundef 3991, ptr noundef nonnull @__func__.tls_construct_next_proto) #8
  call void (ptr, i32, i32, ptr, ...) @ossl_statem_fatal(ptr noundef nonnull %0, i32 noundef 80, i32 noundef 786691, ptr noundef null) #8
  br label %17

15:                                               ; preds = %12
  %16 = load ptr, ptr %3, align 8, !tbaa !168
  call void @llvm.memset.p0.i64(ptr noundef nonnull align 1 dereferenceable(1) %16, i8 0, i64 %8, i1 false)
  br label %17

17:                                               ; preds = %15, %14
  %.0 = phi i32 [ 1, %15 ], [ 0, %14 ]
  call void @llvm.lifetime.end.p0(i64 8, ptr nonnull %3) #8
  ret i32 %.0
}